target datalayout = "e-m:e-p270:32:32-p271:32:32-p272:64:64-i64:64-i128:128-f80:128-n8:16:32:64-S128"
target triple = "x86_64-pc-linux-gnu"

%struct.IDAMemRec = type { ptr, double, ptr, ptr, i32, double, double, ptr, i32, i32, ptr, ptr, i32, i32, i32, ptr, ptr, i32, i32, double, double, ptr, i32, i32, i32, i32, ptr, ptr, i32, ptr, ptr, ptr, i32, double, i32, i32, double, ptr, ptr, ptr, i32, ptr, ptr, i32, i32, i32, double, ptr, ptr, ptr, [6 x ptr], [6 x double], [6 x double], [6 x double], [6 x double], [6 x double], ptr, ptr, ptr, ptr, ptr, ptr, ptr, ptr, ptr, ptr, ptr, ptr, ptr, ptr, ptr, ptr, ptr, [6 x ptr], ptr, ptr, ptr, ptr, [6 x ptr], ptr, ptr, ptr, ptr, ptr, ptr, ptr, ptr, ptr, ptr, ptr, ptr, ptr, ptr, ptr, ptr, [6 x ptr], ptr, ptr, ptr, ptr, ptr, double, ptr, ptr, i32, i32, i32, i32, i32, i32, i32, i32, double, double, double, i32, double, i32, i32, i32, i32, i32, double, double, double, double, double, double, double, double, double, double, double, double, double, double, double, double, double, i32, i32, i32, i32, i64, double, double, double, double, double, double, double, double, double, i64, i64, i64, i64, i64, i64, i64, i64, i64, i64, i64, i64, i64, i64, i64, i64, i64, i64, i64, i64, i64, i64, i64, i64, i64, i64, double, i32, i32, i32, i32, i32, i32, i32, i32, i32, i32, i32, i32, i32, ptr, i32, ptr, i32, ptr, i32, ptr, ptr, ptr, ptr, ptr, ptr, i32, i32, ptr, ptr, ptr, ptr, ptr, ptr, ptr, double, i32, i32, ptr, i32, ptr, ptr, double, double, double, ptr, ptr, ptr, double, double, i32, i32, i64, ptr, i32, ptr, [5 x double], ptr, ptr, i32, ptr, i32 }

@.str = private unnamed_addr constant [115 x i8] c"generated/home/dtcxzyw/WorkSpace/Projects/compilers/llvm-opt-benchmark/bench/sundials/sundials/src/idas/idas_nls.c\00", align 1
@.str.1 = private unnamed_addr constant [24 x i8] c"ida_mem = NULL illegal.\00", align 1
@__func__.idaNlsLSetup = private unnamed_addr constant [13 x i8] c"idaNlsLSetup\00", align 1

; Function Attrs: nounwind uwtable
define internal i32 @idaNlsLSetup(i32 noundef %0, ptr noundef %1, ptr noundef %2) #0 {
  %4 = alloca i32, align 4
  %5 = alloca i32, align 4
  %6 = alloca ptr, align 8
  %7 = alloca ptr, align 8
  %8 = alloca ptr, align 8
  %9 = alloca i32, align 4
  %10 = alloca i32, align 4
  store i32 %0, ptr %5, align 4, !tbaa !30
  store ptr %1, ptr %6, align 8, !tbaa !51
  store ptr %2, ptr %7, align 8, !tbaa !3
  call void @llvm.lifetime.start.p0(i64 8, ptr %8) #3
  call void @llvm.lifetime.start.p0(i64 4, ptr %9) #3
  %11 = load ptr, ptr %7, align 8, !tbaa !3
  %12 = icmp eq ptr %11, null
  br i1 %12, label %13, label %14

13:                                               ; preds = %3
  call void (ptr, i32, i32, ptr, ptr, ptr, ...) @IDAProcessError(ptr noundef null, i32 noundef -20, i32 noundef 244, ptr noundef @__func__.idaNlsLSetup, ptr noundef @.str, ptr noundef @.str.1)
  store i32 -20, ptr %4, align 4
  store i32 1, ptr %10, align 4
  br label %65

14:                                               ; preds = %3
  %15 = load ptr, ptr %7, align 8, !tbaa !3
  store ptr %15, ptr %8, align 8, !tbaa !9
  %16 = load ptr, ptr %8, align 8, !tbaa !9
  %17 = getelementptr inbounds nuw %struct.IDAMemRec, ptr %16, i32 0, i32 171
  %18 = load i64, ptr %17, align 8, !tbaa !52
  %19 = add nsw i64 %18, 1
  store i64 %19, ptr %17, align 8, !tbaa !52
  %20 = load ptr, ptr %8, align 8, !tbaa !9
  %21 = getelementptr inbounds nuw %struct.IDAMemRec, ptr %20, i32 0, i32 215
  store i32 0, ptr %21, align 8, !tbaa !53
  %22 = load ptr, ptr %8, align 8, !tbaa !9
  %23 = getelementptr inbounds nuw %struct.IDAMemRec, ptr %22, i32 0, i32 209
  %24 = load ptr, ptr %23, align 8, !tbaa !49
  %25 = load ptr, ptr %8, align 8, !tbaa !9
  %26 = load ptr, ptr %8, align 8, !tbaa !9
  %27 = getelementptr inbounds nuw %struct.IDAMemRec, ptr %26, i32 0, i32 57
  %28 = load ptr, ptr %27, align 8, !tbaa !35
  %29 = load ptr, ptr %8, align 8, !tbaa !9
  %30 = getelementptr inbounds nuw %struct.IDAMemRec, ptr %29, i32 0, i32 58
  %31 = load ptr, ptr %30, align 8, !tbaa !38
  %32 = load ptr, ptr %8, align 8, !tbaa !9
  %33 = getelementptr inbounds nuw %struct.IDAMemRec, ptr %32, i32 0, i32 64
  %34 = load ptr, ptr %33, align 8, !tbaa !42
  %35 = load ptr, ptr %8, align 8, !tbaa !9
  %36 = getelementptr inbounds nuw %struct.IDAMemRec, ptr %35, i32 0, i32 66
  %37 = load ptr, ptr %36, align 8, !tbaa !54
  %38 = load ptr, ptr %8, align 8, !tbaa !9
  %39 = getelementptr inbounds nuw %struct.IDAMemRec, ptr %38, i32 0, i32 67
  %40 = load ptr, ptr %39, align 8, !tbaa !55
  %41 = load ptr, ptr %8, align 8, !tbaa !9
  %42 = getelementptr inbounds nuw %struct.IDAMemRec, ptr %41, i32 0, i32 68
  %43 = load ptr, ptr %42, align 8, !tbaa !56
  %44 = call i32 %24(ptr noundef %25, ptr noundef %28, ptr noundef %31, ptr noundef %34, ptr noundef %37, ptr noundef %40, ptr noundef %43)
  store i32 %44, ptr %9, align 4, !tbaa !30
  %45 = load ptr, ptr %6, align 8, !tbaa !51
  store i32 1, ptr %45, align 4, !tbaa !30
  %46 = load ptr, ptr %8, align 8, !tbaa !9
  %47 = getelementptr inbounds nuw %struct.IDAMemRec, ptr %46, i32 0, i32 129
  %48 = load double, ptr %47, align 8, !tbaa !37
  %49 = load ptr, ptr %8, align 8, !tbaa !9
  %50 = getelementptr inbounds nuw %struct.IDAMemRec, ptr %49, i32 0, i32 131
  store double %48, ptr %50, align 8, !tbaa !57
  %51 = load ptr, ptr %8, align 8, !tbaa !9
  %52 = getelementptr inbounds nuw %struct.IDAMemRec, ptr %51, i32 0, i32 132
  store double 1.000000e+00, ptr %52, align 8, !tbaa !58
  %53 = load ptr, ptr %8, align 8, !tbaa !9
  %54 = getelementptr inbounds nuw %struct.IDAMemRec, ptr %53, i32 0, i32 133
  store double 2.000000e+01, ptr %54, align 8, !tbaa !46
  %55 = load ptr, ptr %8, align 8, !tbaa !9
  %56 = getelementptr inbounds nuw %struct.IDAMemRec, ptr %55, i32 0, i32 138
  store double 2.000000e+01, ptr %56, align 8, !tbaa !59
  %57 = load i32, ptr %9, align 4, !tbaa !30
  %58 = icmp slt i32 %57, 0
  br i1 %58, label %59, label %60

59:                                               ; preds = %14
  store i32 -6, ptr %4, align 4
  store i32 1, ptr %10, align 4
  br label %65

60:                                               ; preds = %14
  %61 = load i32, ptr %9, align 4, !tbaa !30
  %62 = icmp sgt i32 %61, 0
  br i1 %62, label %63, label %64

63:                                               ; preds = %60
  store i32 2, ptr %4, align 4
  store i32 1, ptr %10, align 4
  br label %65

64:                                               ; preds = %60
  store i32 0, ptr %4, align 4
  store i32 1, ptr %10, align 4
  br label %65

65:                                               ; preds = %64, %63, %59, %13
  call void @llvm.lifetime.end.p0(i64 4, ptr %9) #3
  call void @llvm.lifetime.end.p0(i64 8, ptr %8) #3
  %66 = load i32, ptr %4, align 4
  ret i32 %66
}