; Function Attrs: nounwind uwtable
define internal range(i32 -20, 3) i32 @idaNlsLSetup(i32 %0, ptr noundef writeonly captures(none) %1, ptr noundef %2) #0 {
  %4 = icmp eq ptr %2, null
  br i1 %4, label %5, label %6

5:                                                ; preds = %3
  tail call void (ptr, i32, i32, ptr, ptr, ptr, ...) @IDAProcessError(ptr noundef null, i32 noundef -20, i32 noundef 244, ptr noundef nonnull @__func__.idaNlsLSetup, ptr noundef nonnull @.str, ptr noundef nonnull @.str.1) #3
  br label %34

6:                                                ; preds = %3
  %7 = getelementptr inbounds nuw i8, ptr %2, i64 1608
  %8 = load i64, ptr %7, align 8, !tbaa !46
  %9 = add nsw i64 %8, 1
  store i64 %9, ptr %7, align 8, !tbaa !46
  %10 = getelementptr inbounds nuw i8, ptr %2, i64 1904
  store i32 0, ptr %10, align 8, !tbaa !47
  %11 = getelementptr inbounds nuw i8, ptr %2, i64 1856
  %12 = load ptr, ptr %11, align 8, !tbaa !44
  %13 = getelementptr inbounds nuw i8, ptr %2, i64 640
  %14 = load ptr, ptr %13, align 8, !tbaa !29
  %15 = getelementptr inbounds nuw i8, ptr %2, i64 648
  %16 = load ptr, ptr %15, align 8, !tbaa !32
  %17 = getelementptr inbounds nuw i8, ptr %2, i64 696
  %18 = load ptr, ptr %17, align 8, !tbaa !36
  %19 = getelementptr inbounds nuw i8, ptr %2, i64 712
  %20 = load ptr, ptr %19, align 8, !tbaa !48
  %21 = getelementptr inbounds nuw i8, ptr %2, i64 720
  %22 = load ptr, ptr %21, align 8, !tbaa !49
  %23 = getelementptr inbounds nuw i8, ptr %2, i64 728
  %24 = load ptr, ptr %23, align 8, !tbaa !50
  %25 = tail call i32 %12(ptr noundef nonnull %2, ptr noundef %14, ptr noundef %16, ptr noundef %18, ptr noundef %20, ptr noundef %22, ptr noundef %24) #3
  store i32 1, ptr %1, align 4, !tbaa !37
  %26 = getelementptr inbounds nuw i8, ptr %2, i64 1288
  %27 = load double, ptr %26, align 8, !tbaa !31
  %28 = getelementptr inbounds nuw i8, ptr %2, i64 1304
  store double %27, ptr %28, align 8, !tbaa !51
  %29 = getelementptr inbounds nuw i8, ptr %2, i64 1312
  store double 1.000000e+00, ptr %29, align 8, !tbaa !52
  %30 = getelementptr inbounds nuw i8, ptr %2, i64 1320
  store double 2.000000e+01, ptr %30, align 8, !tbaa !40
  %31 = getelementptr inbounds nuw i8, ptr %2, i64 1360
  store double 2.000000e+01, ptr %31, align 8, !tbaa !53
  %32 = icmp slt i32 %25, 0
  br i1 %32, label %34, label %33

33:                                               ; preds = %6
  %.not = icmp eq i32 %25, 0
  %. = select i1 %.not, i32 0, i32 2
  br label %34

34:                                               ; preds = %33, %6, %5
  %.0 = phi i32 [ -20, %5 ], [ -6, %6 ], [ %., %33 ]
  ret i32 %.0
}